(lp0
(lp1
I1000
aI3000
aI5000
aI7000
aI9000
aI11000
aI13000
aI15000
aI17000
aI19000
aI21000
aI23000
aI25000
aI27000
aI29000
aI31000
aI33000
aI35000
aI37000
aI39000
aI41000
aI43000
aI45000
aI47000
aI49000
aI51000
aI53000
aI55000
aI57000
aI59000
aI61000
aI63000
aI65000
aI67000
aI69000
aI71000
aI73000
aI75000
aI77000
aI79000
aI81000
aI83000
aI85000
aI87000
aI89000
aI91000
aI93000
aI95000
aI97000
aI99000
aI101000
aI103000
aI105000
aI107000
aI109000
aI111000
aI113000
aI115000
aI117000
aI119000
aI121000
aI123000
aI125000
aI127000
aI129000
aI131000
aI133000
aI135000
aI137000
aI139000
aI141000
aI143000
aI145000
aI147000
aI149000
aa(lp2
cnumpy.core.multiarray
scalar
p3
(cnumpy
dtype
p4
(S'f8'
p5
I0
I1
tp6
Rp7
(I3
S'<'
p8
NNNI-1
I-1
I0
tp9
bS'\xd6\r\xb7n \xb1\xde?'
p10
tp11
Rp12
ag3
(g7
S'K_}\x88\x98T\xcd?'
p13
tp14
Rp15
ag3
(g7
S'\x81\xacYf\x8am\xdd?'
p16
tp17
Rp18
ag3
(g7
S'\xa7\x89\x9e\xf5q\x14\xd4?'
p19
tp20
Rp21
ag3
(g7
S'`\x9f\xa6\x04\xeas\xd4?'
p22
tp23
Rp24
ag3
(g7
S'^\xb0@\x0b\xe3\xa4\xd5?'
p25
tp26
Rp27
aa.